target datalayout = "e-m:e-p270:32:32-p271:32:32-p272:64:64-i64:64-i128:128-f80:128-n8:16:32:64-S128"
target triple = "x86_64-pc-linux-gnu"

%"class.icu_77::ChineseCalendar" = type { %"class.icu_77::Calendar", i8, [7 x i8] }
%"class.icu_77::Calendar" = type <{ %"class.icu_77::UObject", [24 x i32], [24 x i8], i8, [7 x i8], double, ptr, i8, i16, i8, i32, i32, i32, i8, i8, i16, [4 x i8], ptr, ptr }>
%"class.icu_77::UObject" = type { ptr }

; Function Attrs: mustprogress uwtable
define void @_ZN6icu_7715ChineseCalendarC2ERKS0_(ptr noundef nonnull align 8 dereferenceable(193) %0, ptr noundef nonnull align 8 dereferenceable(193) %1) unnamed_addr #0 align 2 {
  %3 = alloca ptr, align 8
  %4 = alloca ptr, align 8
  store ptr %0, ptr %3, align 8, !tbaa !3
  store ptr %1, ptr %4, align 8, !tbaa !3
  %5 = load ptr, ptr %3, align 8
  %6 = load ptr, ptr %4, align 8, !tbaa !3
  call void @_ZN6icu_778CalendarC2ERKS0_(ptr noundef nonnull align 8 dereferenceable(192) %5, ptr noundef nonnull align 8 dereferenceable(192) %6)
  store ptr getelementptr inbounds inrange(-16, 464) ({ [60 x ptr] }, ptr @_ZTVN6icu_7715ChineseCalendarE, i32 0, i32 0, i32 2), ptr %5, align 8, !tbaa !11
  %7 = load ptr, ptr %4, align 8, !tbaa !3
  %8 = getelementptr inbounds nuw %"class.icu_77::ChineseCalendar", ptr %7, i32 0, i32 1
  %9 = load i8, ptr %8, align 8, !tbaa !13
  %10 = getelementptr inbounds nuw %"class.icu_77::ChineseCalendar", ptr %5, i32 0, i32 1
  store i8 %9, ptr %10, align 8, !tbaa !13
  ret void
}