; Function Attrs: mustprogress uwtable
define void @_ZN6icu_7715ChineseCalendarC2ERKS0_(ptr noundef nonnull align 8 dereferenceable(193) %0, ptr noundef nonnull align 8 dereferenceable(193) %1) unnamed_addr #0 align 2 {
  tail call void @_ZN6icu_778CalendarC2ERKS0_(ptr noundef nonnull align 8 dereferenceable(192) %0, ptr noundef nonnull align 8 dereferenceable(192) %1)
  store ptr getelementptr inbounds nuw inrange(-16, 464) (i8, ptr @_ZTVN6icu_7715ChineseCalendarE, i64 16), ptr %0, align 8, !tbaa !3
  %3 = getelementptr inbounds nuw i8, ptr %1, i64 192
  %4 = load i8, ptr %3, align 8, !tbaa !6
  %5 = getelementptr inbounds nuw i8, ptr %0, i64 192
  store i8 %4, ptr %5, align 8, !tbaa !6
  ret void
}